target datalayout = "e-m:e-p270:32:32-p271:32:32-p272:64:64-i64:64-i128:128-f80:128-n8:16:32:64-S128"
target triple = "x86_64-unknown-linux-gnu"

%struct.v3_ext_ctx = type { i32, ptr, ptr, ptr, ptr, ptr, ptr }

; Function Attrs: nounwind uwtable
define hidden void @X509V3_set_ctx(ptr noundef %ctx, ptr noundef %issuer, ptr noundef %subj, ptr noundef %req, ptr noundef %crl, i32 noundef %flags) #0 {
entry:
  %ctx.addr = alloca ptr, align 8
  %issuer.addr = alloca ptr, align 8
  %subj.addr = alloca ptr, align 8
  %req.addr = alloca ptr, align 8
  %crl.addr = alloca ptr, align 8
  %flags.addr = alloca i32, align 4
  store ptr %ctx, ptr %ctx.addr, align 8
  store ptr %issuer, ptr %issuer.addr, align 8
  store ptr %subj, ptr %subj.addr, align 8
  store ptr %req, ptr %req.addr, align 8
  store ptr %crl, ptr %crl.addr, align 8
  store i32 %flags, ptr %flags.addr, align 4
  %0 = load ptr, ptr %issuer.addr, align 8
  %1 = load ptr, ptr %ctx.addr, align 8
  %issuer_cert = getelementptr inbounds %struct.v3_ext_ctx, ptr %1, i32 0, i32 1
  store ptr %0, ptr %issuer_cert, align 8
  %2 = load ptr, ptr %subj.addr, align 8
  %3 = load ptr, ptr %ctx.addr, align 8
  %subject_cert = getelementptr inbounds %struct.v3_ext_ctx, ptr %3, i32 0, i32 2
  store ptr %2, ptr %subject_cert, align 8
  %4 = load ptr, ptr %crl.addr, align 8
  %5 = load ptr, ptr %ctx.addr, align 8
  %crl1 = getelementptr inbounds %struct.v3_ext_ctx, ptr %5, i32 0, i32 4
  store ptr %4, ptr %crl1, align 8
  %6 = load ptr, ptr %req.addr, align 8
  %7 = load ptr, ptr %ctx.addr, align 8
  %subject_req = getelementptr inbounds %struct.v3_ext_ctx, ptr %7, i32 0, i32 3
  store ptr %6, ptr %subject_req, align 8
  %8 = load i32, ptr %flags.addr, align 4
  %9 = load ptr, ptr %ctx.addr, align 8
  %flags2 = getelementptr inbounds %struct.v3_ext_ctx, ptr %9, i32 0, i32 0
  store i32 %8, ptr %flags2, align 8
  ret void
}