; Function Attrs: mustprogress nofree norecurse nosync nounwind willreturn memory(argmem: write) uwtable
define hidden void @X509V3_set_ctx(ptr noundef writeonly captures(none) initializes((0, 4), (8, 40)) %ctx, ptr noundef %issuer, ptr noundef %subj, ptr noundef %req, ptr noundef %crl, i32 noundef %flags) local_unnamed_addr #2 {
entry:
  %issuer_cert = getelementptr inbounds nuw i8, ptr %ctx, i64 8
  store ptr %issuer, ptr %issuer_cert, align 8
  %subject_cert = getelementptr inbounds nuw i8, ptr %ctx, i64 16
  store ptr %subj, ptr %subject_cert, align 8
  %crl1 = getelementptr inbounds nuw i8, ptr %ctx, i64 32
  store ptr %crl, ptr %crl1, align 8
  %subject_req = getelementptr inbounds nuw i8, ptr %ctx, i64 24
  store ptr %req, ptr %subject_req, align 8
  store i32 %flags, ptr %ctx, align 8
  ret void
}